target datalayout = "e-m:e-p270:32:32-p271:32:32-p272:64:64-i64:64-i128:128-f80:128-n8:16:32:64-S128"
target triple = "x86_64-pc-linux-gnu"

%struct.x509_store_ctx_st = type { ptr, i32, ptr, ptr, ptr, ptr, ptr, ptr, ptr, ptr, ptr, ptr, ptr, ptr, ptr, ptr, ptr, ptr, ptr, i32, i32, ptr, ptr, i32, i32, i32, ptr, ptr, ptr, i32, i32, ptr, %struct.crypto_ex_data_st }
%struct.crypto_ex_data_st = type { ptr }
%struct.X509_VERIFY_PARAM_st = type { ptr, i64, i64, i64, i32, i32, i32, ptr, ptr }
%struct.x509_purpose_st = type { i32, i32, i32, ptr, ptr, ptr, ptr }

@.str = private unnamed_addr constant [126 x i8] c"generated/home/dtcxzyw/WorkSpace/Projects/compilers/llvm-opt-benchmark/bench/libquic/libquic/boringssl/crypto/x509/x509_vfy.c\00", align 1

; Function Attrs: nounwind uwtable
define hidden i32 @X509_STORE_CTX_purpose_inherit(ptr noundef %0, i32 noundef %1, i32 noundef %2, i32 noundef %3) #0 {
  %5 = alloca i32, align 4
  %6 = alloca ptr, align 8
  %7 = alloca i32, align 4
  %8 = alloca i32, align 4
  %9 = alloca i32, align 4
  %10 = alloca i32, align 4
  %11 = alloca ptr, align 8
  %12 = alloca i32, align 4
  store ptr %0, ptr %6, align 8, !tbaa !6
  store i32 %1, ptr %7, align 4, !tbaa !13
  store i32 %2, ptr %8, align 4, !tbaa !13
  store i32 %3, ptr %9, align 4, !tbaa !13
  call void @llvm.lifetime.start.p0(i64 4, ptr %10) #8
  %13 = load i32, ptr %8, align 4, !tbaa !13
  %14 = icmp ne i32 %13, 0
  br i1 %14, label %17, label %15

15:                                               ; preds = %4
  %16 = load i32, ptr %7, align 4, !tbaa !13
  store i32 %16, ptr %8, align 4, !tbaa !13
  br label %17

17:                                               ; preds = %15, %4
  %18 = load i32, ptr %8, align 4, !tbaa !13
  %19 = icmp ne i32 %18, 0
  br i1 %19, label %20, label %53

20:                                               ; preds = %17
  call void @llvm.lifetime.start.p0(i64 8, ptr %11) #8
  %21 = load i32, ptr %8, align 4, !tbaa !13
  %22 = call i32 @X509_PURPOSE_get_by_id(i32 noundef %21)
  store i32 %22, ptr %10, align 4, !tbaa !13
  %23 = load i32, ptr %10, align 4, !tbaa !13
  %24 = icmp eq i32 %23, -1
  br i1 %24, label %25, label %26

25:                                               ; preds = %20
  call void @ERR_put_error(i32 noundef 11, i32 noundef 0, i32 noundef 130, ptr noundef @.str, i32 noundef 2161)
  store i32 0, ptr %5, align 4
  store i32 1, ptr %12, align 4
  br label %50

26:                                               ; preds = %20
  %27 = load i32, ptr %10, align 4, !tbaa !13
  %28 = call ptr @X509_PURPOSE_get0(i32 noundef %27)
  store ptr %28, ptr %11, align 8, !tbaa !135
  %29 = load ptr, ptr %11, align 8, !tbaa !135
  %30 = getelementptr inbounds nuw %struct.x509_purpose_st, ptr %29, i32 0, i32 1
  %31 = load i32, ptr %30, align 4, !tbaa !137
  %32 = icmp eq i32 %31, -1
  br i1 %32, label %33, label %42

33:                                               ; preds = %26
  %34 = load i32, ptr %7, align 4, !tbaa !13
  %35 = call i32 @X509_PURPOSE_get_by_id(i32 noundef %34)
  store i32 %35, ptr %10, align 4, !tbaa !13
  %36 = load i32, ptr %10, align 4, !tbaa !13
  %37 = icmp eq i32 %36, -1
  br i1 %37, label %38, label %39

38:                                               ; preds = %33
  call void @ERR_put_error(i32 noundef 11, i32 noundef 0, i32 noundef 130, ptr noundef @.str, i32 noundef 2168)
  store i32 0, ptr %5, align 4
  store i32 1, ptr %12, align 4
  br label %50

39:                                               ; preds = %33
  %40 = load i32, ptr %10, align 4, !tbaa !13
  %41 = call ptr @X509_PURPOSE_get0(i32 noundef %40)
  store ptr %41, ptr %11, align 8, !tbaa !135
  br label %42

42:                                               ; preds = %39, %26
  %43 = load i32, ptr %9, align 4, !tbaa !13
  %44 = icmp ne i32 %43, 0
  br i1 %44, label %49, label %45

45:                                               ; preds = %42
  %46 = load ptr, ptr %11, align 8, !tbaa !135
  %47 = getelementptr inbounds nuw %struct.x509_purpose_st, ptr %46, i32 0, i32 1
  %48 = load i32, ptr %47, align 4, !tbaa !137
  store i32 %48, ptr %9, align 4, !tbaa !13
  br label %49

49:                                               ; preds = %45, %42
  store i32 0, ptr %12, align 4
  br label %50

50:                                               ; preds = %49, %38, %25
  call void @llvm.lifetime.end.p0(i64 8, ptr %11) #8
  %51 = load i32, ptr %12, align 4
  switch i32 %51, label %96 [
    i32 0, label %52
  ]

52:                                               ; preds = %50
  br label %53

53:                                               ; preds = %52, %17
  %54 = load i32, ptr %9, align 4, !tbaa !13
  %55 = icmp ne i32 %54, 0
  br i1 %55, label %56, label %63

56:                                               ; preds = %53
  %57 = load i32, ptr %9, align 4, !tbaa !13
  %58 = call i32 @X509_TRUST_get_by_id(i32 noundef %57)
  store i32 %58, ptr %10, align 4, !tbaa !13
  %59 = load i32, ptr %10, align 4, !tbaa !13
  %60 = icmp eq i32 %59, -1
  br i1 %60, label %61, label %62

61:                                               ; preds = %56
  call void @ERR_put_error(i32 noundef 11, i32 noundef 0, i32 noundef 131, ptr noundef @.str, i32 noundef 2180)
  store i32 0, ptr %5, align 4
  store i32 1, ptr %12, align 4
  br label %96

62:                                               ; preds = %56
  br label %63

63:                                               ; preds = %62, %53
  %64 = load i32, ptr %8, align 4, !tbaa !13
  %65 = icmp ne i32 %64, 0
  br i1 %65, label %66, label %79

66:                                               ; preds = %63
  %67 = load ptr, ptr %6, align 8, !tbaa !6
  %68 = getelementptr inbounds nuw %struct.x509_store_ctx_st, ptr %67, i32 0, i32 5
  %69 = load ptr, ptr %68, align 8, !tbaa !15
  %70 = getelementptr inbounds nuw %struct.X509_VERIFY_PARAM_st, ptr %69, i32 0, i32 4
  %71 = load i32, ptr %70, align 8, !tbaa !68
  %72 = icmp ne i32 %71, 0
  br i1 %72, label %79, label %73

73:                                               ; preds = %66
  %74 = load i32, ptr %8, align 4, !tbaa !13
  %75 = load ptr, ptr %6, align 8, !tbaa !6
  %76 = getelementptr inbounds nuw %struct.x509_store_ctx_st, ptr %75, i32 0, i32 5
  %77 = load ptr, ptr %76, align 8, !tbaa !15
  %78 = getelementptr inbounds nuw %struct.X509_VERIFY_PARAM_st, ptr %77, i32 0, i32 4
  store i32 %74, ptr %78, align 8, !tbaa !68
  br label %79

79:                                               ; preds = %73, %66, %63
  %80 = load i32, ptr %9, align 4, !tbaa !13
  %81 = icmp ne i32 %80, 0
  br i1 %81, label %82, label %95

82:                                               ; preds = %79
  %83 = load ptr, ptr %6, align 8, !tbaa !6
  %84 = getelementptr inbounds nuw %struct.x509_store_ctx_st, ptr %83, i32 0, i32 5
  %85 = load ptr, ptr %84, align 8, !tbaa !15
  %86 = getelementptr inbounds nuw %struct.X509_VERIFY_PARAM_st, ptr %85, i32 0, i32 5
  %87 = load i32, ptr %86, align 4, !tbaa !65
  %88 = icmp ne i32 %87, 0
  br i1 %88, label %95, label %89

89:                                               ; preds = %82
  %90 = load i32, ptr %9, align 4, !tbaa !13
  %91 = load ptr, ptr %6, align 8, !tbaa !6
  %92 = getelementptr inbounds nuw %struct.x509_store_ctx_st, ptr %91, i32 0, i32 5
  %93 = load ptr, ptr %92, align 8, !tbaa !15
  %94 = getelementptr inbounds nuw %struct.X509_VERIFY_PARAM_st, ptr %93, i32 0, i32 5
  store i32 %90, ptr %94, align 4, !tbaa !65
  br label %95

95:                                               ; preds = %89, %82, %79
  store i32 1, ptr %5, align 4
  store i32 1, ptr %12, align 4
  br label %96

96:                                               ; preds = %95, %61, %50
  call void @llvm.lifetime.end.p0(i64 4, ptr %10) #8
  %97 = load i32, ptr %5, align 4
  ret i32 %97
}