; Function Attrs: nounwind uwtable
define hidden range(i32 0, 2) i32 @X509_STORE_CTX_purpose_inherit(ptr noundef readonly captures(none) %0, i32 noundef %1, i32 noundef %2, i32 noundef %3) local_unnamed_addr #0 {
  %.not = icmp eq i32 %2, 0
  %spec.select = select i1 %.not, i32 %1, i32 %2
  %.not33 = icmp eq i32 %spec.select, 0
  br i1 %.not33, label %.thread, label %5

5:                                                ; preds = %4
  %6 = tail call i32 @X509_PURPOSE_get_by_id(i32 noundef %spec.select) #14
  %7 = icmp eq i32 %6, -1
  br i1 %7, label %8, label %9

8:                                                ; preds = %5
  tail call void @ERR_put_error(i32 noundef 11, i32 noundef 0, i32 noundef 130, ptr noundef nonnull @.str, i32 noundef 2161) #14
  br label %41

9:                                                ; preds = %5
  %10 = tail call ptr @X509_PURPOSE_get0(i32 noundef %6) #14
  %11 = getelementptr inbounds nuw i8, ptr %10, i64 4
  %12 = load i32, ptr %11, align 4, !tbaa !126
  %13 = icmp eq i32 %12, -1
  br i1 %13, label %14, label %20

14:                                               ; preds = %9
  %15 = tail call i32 @X509_PURPOSE_get_by_id(i32 noundef %1) #14
  %16 = icmp eq i32 %15, -1
  br i1 %16, label %17, label %18

17:                                               ; preds = %14
  tail call void @ERR_put_error(i32 noundef 11, i32 noundef 0, i32 noundef 130, ptr noundef nonnull @.str, i32 noundef 2168) #14
  br label %41

18:                                               ; preds = %14
  %19 = tail call ptr @X509_PURPOSE_get0(i32 noundef %15) #14
  br label %20

20:                                               ; preds = %18, %9
  %.024 = phi ptr [ %19, %18 ], [ %10, %9 ]
  %.not34 = icmp eq i32 %3, 0
  br i1 %.not34, label %21, label %.thread.thread

21:                                               ; preds = %20
  %22 = getelementptr inbounds nuw i8, ptr %.024, i64 4
  %23 = load i32, ptr %22, align 4, !tbaa !126
  br label %.thread

.thread:                                          ; preds = %21, %4
  %.025 = phi i32 [ %3, %4 ], [ %23, %21 ]
  %.not35 = icmp eq i32 %.025, 0
  br i1 %.not35, label %27, label %.thread.thread

.thread.thread:                                   ; preds = %20, %.thread
  %.02542 = phi i32 [ %.025, %.thread ], [ %3, %20 ]
  %24 = tail call i32 @X509_TRUST_get_by_id(i32 noundef %.02542) #14
  %25 = icmp eq i32 %24, -1
  br i1 %25, label %26, label %27

26:                                               ; preds = %.thread.thread
  tail call void @ERR_put_error(i32 noundef 11, i32 noundef 0, i32 noundef 131, ptr noundef nonnull @.str, i32 noundef 2180) #14
  br label %41

27:                                               ; preds = %.thread.thread, %.thread
  %.not3545 = phi i1 [ false, %.thread.thread ], [ true, %.thread ]
  %.02543 = phi i32 [ %.02542, %.thread.thread ], [ 0, %.thread ]
  br i1 %.not33, label %34, label %28

28:                                               ; preds = %27
  %29 = getelementptr inbounds nuw i8, ptr %0, i64 40
  %30 = load ptr, ptr %29, align 8, !tbaa !6
  %31 = getelementptr inbounds nuw i8, ptr %30, i64 32
  %32 = load i32, ptr %31, align 8, !tbaa !64
  %.not36 = icmp eq i32 %32, 0
  br i1 %.not36, label %33, label %34

33:                                               ; preds = %28
  store i32 %spec.select, ptr %31, align 8, !tbaa !64
  br label %34

34:                                               ; preds = %33, %28, %27
  br i1 %.not3545, label %41, label %35

35:                                               ; preds = %34
  %36 = getelementptr inbounds nuw i8, ptr %0, i64 40
  %37 = load ptr, ptr %36, align 8, !tbaa !6
  %38 = getelementptr inbounds nuw i8, ptr %37, i64 36
  %39 = load i32, ptr %38, align 4, !tbaa !53
  %.not37 = icmp eq i32 %39, 0
  br i1 %.not37, label %40, label %41

40:                                               ; preds = %35
  store i32 %.02543, ptr %38, align 4, !tbaa !53
  br label %41

41:                                               ; preds = %8, %17, %34, %35, %40, %26
  %.128 = phi i32 [ 0, %26 ], [ 1, %40 ], [ 1, %35 ], [ 1, %34 ], [ 0, %17 ], [ 0, %8 ]
  ret i32 %.128
}